; Function Attrs: nounwind sspstrong uwtable
define dso_local zeroext i1 @job_cancel_requested(ptr noundef readonly captures(none) %0) local_unnamed_addr #0 {
glib_autoptr_cleanup_QemuLockable.exit:
  %1 = load atomic i64, ptr @qemu_mutex_lock_func monotonic, align 8
  %2 = inttoptr i64 %1 to ptr
  tail call void %2(ptr noundef nonnull @job_mutex, ptr noundef nonnull @.str.29, i32 noundef 56) #15
  %3 = getelementptr i8, ptr %0, i64 183
  %.val1 = load i8, ptr %3, align 1, !range !4, !noundef !5
  %4 = trunc nuw i8 %.val1 to i1
  tail call void @qemu_mutex_unlock_impl(ptr noundef nonnull @job_mutex, ptr noundef nonnull @.str.29, i32 noundef 56) #15
  ret i1 %4
}